target datalayout = "e-m:e-p270:32:32-p271:32:32-p272:64:64-i64:64-i128:128-f80:128-n8:16:32:64-S128"
target triple = "x86_64-pc-linux-gnu"

%"struct.duckdb_libpgquery::yyguts_t" = type { ptr, ptr, ptr, i64, i64, ptr, i8, i64, i64, ptr, i32, i32, i32, i32, i32, ptr, i32, ptr, i32, i32, ptr, i32, i32, ptr, ptr }
%"struct.duckdb_libpgquery::core_yy_extra_type" = type { ptr, i64, ptr, i32, i32, i8, i8, ptr, i32, i32, i32, ptr, i32, i8, i8 }

@.str.47 = private unnamed_addr constant [46 x i8] c"nonstandard use of escape in a string literal\00", align 1
@.str.48 = private unnamed_addr constant [57 x i8] c"Use the escape string syntax for escapes, e.g., E'\\r\\n'.\00", align 1

; Function Attrs: mustprogress uwtable
define hidden noundef i32 @_ZN17duckdb_libpgquery19scanner_errpositionEiPv(i32 noundef %0, ptr noundef %1) #0 {
  %3 = alloca i32, align 4
  %4 = alloca i32, align 4
  %5 = alloca ptr, align 8
  %6 = alloca i32, align 4
  %7 = alloca i32, align 4
  store i32 %0, ptr %4, align 4, !tbaa !33
  store ptr %1, ptr %5, align 8, !tbaa !10
  call void @llvm.lifetime.start.p0(i64 4, ptr %6) #11
  %8 = load i32, ptr %4, align 4, !tbaa !33
  %9 = icmp slt i32 %8, 0
  br i1 %9, label %10, label %11

10:                                               ; preds = %2
  store i32 0, ptr %3, align 4
  store i32 1, ptr %7, align 4
  br label %22

11:                                               ; preds = %2
  %12 = load ptr, ptr %5, align 8, !tbaa !10
  %13 = getelementptr inbounds nuw %"struct.duckdb_libpgquery::yyguts_t", ptr %12, i32 0, i32 0
  %14 = load ptr, ptr %13, align 8, !tbaa !43
  %15 = getelementptr inbounds nuw %"struct.duckdb_libpgquery::core_yy_extra_type", ptr %14, i32 0, i32 0
  %16 = load ptr, ptr %15, align 8, !tbaa !44
  %17 = load i32, ptr %4, align 4, !tbaa !33
  %18 = call noundef i32 @_ZN17duckdb_libpgquery20pg_mbstrlen_with_lenEPKci(ptr noundef %16, i32 noundef %17)
  %19 = add nsw i32 %18, 1
  store i32 %19, ptr %6, align 4, !tbaa !33
  %20 = load i32, ptr %6, align 4, !tbaa !33
  %21 = call noundef i32 @_ZN17duckdb_libpgquery11errpositionEi(i32 noundef %20)
  store i32 %21, ptr %3, align 4
  store i32 1, ptr %7, align 4
  br label %22

22:                                               ; preds = %11, %10
  call void @llvm.lifetime.end.p0(i64 4, ptr %6) #11
  %23 = load i32, ptr %3, align 4
  ret i32 %23
}

; Function Attrs: mustprogress uwtable
define internal void @_ZN17duckdb_libpgqueryL20check_escape_warningEPv(ptr noundef %0) #0 {
  %2 = alloca ptr, align 8
  store ptr %0, ptr %2, align 8, !tbaa !10
  %3 = load ptr, ptr %2, align 8, !tbaa !10
  %4 = getelementptr inbounds nuw %"struct.duckdb_libpgquery::yyguts_t", ptr %3, i32 0, i32 0
  %5 = load ptr, ptr %4, align 8, !tbaa !43
  %6 = getelementptr inbounds nuw %"struct.duckdb_libpgquery::core_yy_extra_type", ptr %5, i32 0, i32 13
  %7 = load i8, ptr %6, align 4, !tbaa !56, !range !59, !noundef !60
  %8 = trunc i8 %7 to i1
  br i1 %8, label %9, label %27

9:                                                ; preds = %1
  %10 = load ptr, ptr %2, align 8, !tbaa !10
  %11 = getelementptr inbounds nuw %"struct.duckdb_libpgquery::yyguts_t", ptr %10, i32 0, i32 0
  %12 = load ptr, ptr %11, align 8, !tbaa !43
  %13 = getelementptr inbounds nuw %"struct.duckdb_libpgquery::core_yy_extra_type", ptr %12, i32 0, i32 5
  %14 = load i8, ptr %13, align 8, !tbaa !83, !range !59, !noundef !60
  %15 = trunc i8 %14 to i1
  br i1 %15, label %16, label %27

16:                                               ; preds = %9
  %17 = call noundef i32 @_ZN17duckdb_libpgquery7errcodeEi(i32 noundef 6)
  %18 = call noundef i32 (ptr, ...) @_ZN17duckdb_libpgquery6errmsgEPKcz(ptr noundef @.str.47)
  %19 = call noundef i32 @_ZN17duckdb_libpgquery7errhintEPKc(ptr noundef @.str.48)
  %20 = load ptr, ptr %2, align 8, !tbaa !10
  %21 = getelementptr inbounds nuw %"struct.duckdb_libpgquery::yyguts_t", ptr %20, i32 0, i32 24
  %22 = load ptr, ptr %21, align 8, !tbaa !21
  %23 = load i32, ptr %22, align 4, !tbaa !33
  %24 = load ptr, ptr %2, align 8, !tbaa !10
  %25 = call noundef i32 @_ZN17duckdb_libpgquery19scanner_errpositionEiPv(i32 noundef %23, ptr noundef %24)
  %26 = call noundef i32 (i32, ...) @_ZN17duckdb_libpgquery7ereportEiz(i32 noundef 2, i32 noundef %25)
  br label %27

27:                                               ; preds = %16, %9, %1
  %28 = load ptr, ptr %2, align 8, !tbaa !10
  %29 = getelementptr inbounds nuw %"struct.duckdb_libpgquery::yyguts_t", ptr %28, i32 0, i32 0
  %30 = load ptr, ptr %29, align 8, !tbaa !43
  %31 = getelementptr inbounds nuw %"struct.duckdb_libpgquery::core_yy_extra_type", ptr %30, i32 0, i32 13
  store i8 0, ptr %31, align 4, !tbaa !56
  ret void
}