; Function Attrs: mustprogress uwtable
define internal fastcc void @_ZN17duckdb_libpgqueryL20check_escape_warningEPv(ptr noundef readonly captures(none) %0) unnamed_addr #0 {
  %2 = load ptr, ptr %0, align 8, !tbaa !43
  %3 = getelementptr inbounds nuw i8, ptr %2, i64 76
  %4 = load i8, ptr %3, align 4, !tbaa !59, !range !62, !noundef !63
  %5 = trunc nuw i8 %4 to i1
  br i1 %5, label %6, label %25

6:                                                ; preds = %1
  %7 = getelementptr inbounds nuw i8, ptr %2, i64 32
  %8 = load i8, ptr %7, align 8, !tbaa !67, !range !62, !noundef !63
  %9 = trunc nuw i8 %8 to i1
  br i1 %9, label %10, label %25

10:                                               ; preds = %6
  %11 = tail call noundef i32 @_ZN17duckdb_libpgquery7errcodeEi(i32 noundef 6)
  %12 = tail call noundef i32 (ptr, ...) @_ZN17duckdb_libpgquery6errmsgEPKcz(ptr noundef nonnull @.str.47)
  %13 = tail call noundef i32 @_ZN17duckdb_libpgquery7errhintEPKc(ptr noundef nonnull @.str.48)
  %14 = getelementptr inbounds nuw i8, ptr %0, i64 160
  %15 = load ptr, ptr %14, align 8, !tbaa !16
  %16 = load i32, ptr %15, align 4, !tbaa !48
  %17 = icmp slt i32 %16, 0
  br i1 %17, label %_ZN17duckdb_libpgquery19scanner_errpositionEiPv.exit, label %18

18:                                               ; preds = %10
  %19 = load ptr, ptr %0, align 8, !tbaa !43
  %20 = load ptr, ptr %19, align 8, !tbaa !44
  %21 = tail call noundef i32 @_ZN17duckdb_libpgquery20pg_mbstrlen_with_lenEPKci(ptr noundef %20, i32 noundef %16)
  %22 = add nsw i32 %21, 1
  %23 = tail call noundef i32 @_ZN17duckdb_libpgquery11errpositionEi(i32 noundef %22)
  br label %_ZN17duckdb_libpgquery19scanner_errpositionEiPv.exit

_ZN17duckdb_libpgquery19scanner_errpositionEiPv.exit: ; preds = %10, %18
  %.0.i = phi i32 [ %23, %18 ], [ 0, %10 ]
  %24 = tail call noundef i32 (i32, ...) @_ZN17duckdb_libpgquery7ereportEiz(i32 noundef 2, i32 noundef %.0.i)
  %.pre = load ptr, ptr %0, align 8, !tbaa !43
  br label %25

25:                                               ; preds = %_ZN17duckdb_libpgquery19scanner_errpositionEiPv.exit, %6, %1
  %26 = phi ptr [ %.pre, %_ZN17duckdb_libpgquery19scanner_errpositionEiPv.exit ], [ %2, %6 ], [ %2, %1 ]
  %27 = getelementptr inbounds nuw i8, ptr %26, i64 76
  store i8 0, ptr %27, align 4, !tbaa !59
  ret void
}